target datalayout = "e-m:e-p270:32:32-p271:32:32-p272:64:64-i64:64-i128:128-f80:128-n8:16:32:64-S128"
target triple = "x86_64-pc-linux-gnu"

%struct.crypto_ex_data_st = type { ptr, ptr }
%struct.x509_store_ctx_st = type { ptr, ptr, ptr, ptr, ptr, ptr, ptr, ptr, ptr, ptr, ptr, ptr, ptr, ptr, ptr, ptr, ptr, ptr, i32, i32, ptr, ptr, i32, i32, i32, ptr, ptr, ptr, i32, i32, ptr, %struct.crypto_ex_data_st, ptr, i32, ptr, ptr, ptr }

@.str = private unnamed_addr constant [34 x i8] c"../openssl/crypto/x509/x509_vfy.c\00", align 1
@__func__.X509_build_chain = private unnamed_addr constant [17 x i8] c"X509_build_chain\00", align 1

; Function Attrs: inlinehint nounwind uwtable
define internal ptr @ossl_check_X509_sk_type(ptr noundef %0) #3 {
  %2 = alloca ptr, align 8
  store ptr %0, ptr %2, align 8, !tbaa !60
  %3 = load ptr, ptr %2, align 8, !tbaa !60
  ret ptr %3
}

; Function Attrs: inlinehint nounwind uwtable
define internal ptr @ossl_check_const_X509_sk_type(ptr noundef %0) #3 {
  %2 = alloca ptr, align 8
  store ptr %0, ptr %2, align 8, !tbaa !60
  %3 = load ptr, ptr %2, align 8, !tbaa !60
  ret ptr %3
}

; Function Attrs: nounwind uwtable
define void @X509_STORE_CTX_set0_trusted_stack(ptr noundef %0, ptr noundef %1) #0 {
  %3 = alloca ptr, align 8
  %4 = alloca ptr, align 8
  store ptr %0, ptr %3, align 8, !tbaa !40
  store ptr %1, ptr %4, align 8, !tbaa !60
  %5 = load ptr, ptr %4, align 8, !tbaa !60
  %6 = load ptr, ptr %3, align 8, !tbaa !40
  %7 = getelementptr inbounds nuw %struct.x509_store_ctx_st, ptr %6, i32 0, i32 5
  store ptr %5, ptr %7, align 8, !tbaa !134
  %8 = load ptr, ptr %3, align 8, !tbaa !40
  %9 = getelementptr inbounds nuw %struct.x509_store_ctx_st, ptr %8, i32 0, i32 8
  store ptr @get1_best_issuer_other_sk, ptr %9, align 8, !tbaa !146
  %10 = load ptr, ptr %3, align 8, !tbaa !40
  %11 = getelementptr inbounds nuw %struct.x509_store_ctx_st, ptr %10, i32 0, i32 15
  store ptr @lookup_certs_sk, ptr %11, align 8, !tbaa !161
  ret void
}

; Function Attrs: nounwind uwtable
define ptr @X509_STORE_CTX_new_ex(ptr noundef %0, ptr noundef %1) #0 {
  %3 = alloca ptr, align 8
  %4 = alloca ptr, align 8
  %5 = alloca ptr, align 8
  %6 = alloca ptr, align 8
  %7 = alloca i32, align 4
  store ptr %0, ptr %4, align 8, !tbaa !126
  store ptr %1, ptr %5, align 8, !tbaa !127
  call void @llvm.lifetime.start.p0(i64 8, ptr %6) #8
  %8 = call noalias ptr @CRYPTO_zalloc(i64 noundef 280, ptr noundef @.str, i32 noundef 2452)
  store ptr %8, ptr %6, align 8, !tbaa !40
  %9 = load ptr, ptr %6, align 8, !tbaa !40
  %10 = icmp eq ptr %9, null
  br i1 %10, label %11, label %12

11:                                               ; preds = %2
  store ptr null, ptr %3, align 8
  store i32 1, ptr %7, align 4
  br label %32

12:                                               ; preds = %2
  %13 = load ptr, ptr %4, align 8, !tbaa !126
  %14 = load ptr, ptr %6, align 8, !tbaa !40
  %15 = getelementptr inbounds nuw %struct.x509_store_ctx_st, ptr %14, i32 0, i32 35
  store ptr %13, ptr %15, align 8, !tbaa !128
  %16 = load ptr, ptr %5, align 8, !tbaa !127
  %17 = icmp ne ptr %16, null
  br i1 %17, label %18, label %30

18:                                               ; preds = %12
  %19 = load ptr, ptr %5, align 8, !tbaa !127
  %20 = call noalias ptr @CRYPTO_strdup(ptr noundef %19, ptr noundef @.str, i32 noundef 2459)
  %21 = load ptr, ptr %6, align 8, !tbaa !40
  %22 = getelementptr inbounds nuw %struct.x509_store_ctx_st, ptr %21, i32 0, i32 36
  store ptr %20, ptr %22, align 8, !tbaa !129
  %23 = load ptr, ptr %6, align 8, !tbaa !40
  %24 = getelementptr inbounds nuw %struct.x509_store_ctx_st, ptr %23, i32 0, i32 36
  %25 = load ptr, ptr %24, align 8, !tbaa !129
  %26 = icmp eq ptr %25, null
  br i1 %26, label %27, label %29

27:                                               ; preds = %18
  %28 = load ptr, ptr %6, align 8, !tbaa !40
  call void @CRYPTO_free(ptr noundef %28, ptr noundef @.str, i32 noundef 2461)
  store ptr null, ptr %3, align 8
  store i32 1, ptr %7, align 4
  br label %32

29:                                               ; preds = %18
  br label %30

30:                                               ; preds = %29, %12
  %31 = load ptr, ptr %6, align 8, !tbaa !40
  store ptr %31, ptr %3, align 8
  store i32 1, ptr %7, align 4
  br label %32

32:                                               ; preds = %30, %27, %11
  call void @llvm.lifetime.end.p0(i64 8, ptr %6) #8
  %33 = load ptr, ptr %3, align 8
  ret ptr %33
}

; Function Attrs: nounwind uwtable
define ptr @X509_build_chain(ptr noundef %0, ptr noundef %1, ptr noundef %2, i32 noundef %3, ptr noundef %4, ptr noundef %5) #0 {
  %7 = alloca ptr, align 8
  %8 = alloca ptr, align 8
  %9 = alloca ptr, align 8
  %10 = alloca ptr, align 8
  %11 = alloca i32, align 4
  %12 = alloca ptr, align 8
  %13 = alloca ptr, align 8
  %14 = alloca i32, align 4
  %15 = alloca ptr, align 8
  %16 = alloca i32, align 4
  %17 = alloca ptr, align 8
  %18 = alloca i32, align 4
  store ptr %0, ptr %8, align 8, !tbaa !3
  store ptr %1, ptr %9, align 8, !tbaa !60
  store ptr %2, ptr %10, align 8, !tbaa !132
  store i32 %3, ptr %11, align 4, !tbaa !8
  store ptr %4, ptr %12, align 8, !tbaa !126
  store ptr %5, ptr %13, align 8, !tbaa !127
  call void @llvm.lifetime.start.p0(i64 4, ptr %14) #8
  %19 = load ptr, ptr %10, align 8, !tbaa !132
  %20 = icmp ne ptr %19, null
  %21 = zext i1 %20 to i32
  store i32 %21, ptr %14, align 4, !tbaa !8
  call void @llvm.lifetime.start.p0(i64 8, ptr %15) #8
  call void @llvm.lifetime.start.p0(i64 4, ptr %16) #8
  store i32 1, ptr %16, align 4, !tbaa !8
  call void @llvm.lifetime.start.p0(i64 8, ptr %17) #8
  store ptr null, ptr %17, align 8, !tbaa !60
  %22 = load ptr, ptr %8, align 8, !tbaa !3
  %23 = icmp eq ptr %22, null
  br i1 %23, label %24, label %25

24:                                               ; preds = %6
  call void @ERR_new()
  call void @ERR_set_debug(ptr noundef @.str, i32 noundef 3627, ptr noundef @__func__.X509_build_chain)
  call void (i32, i32, ptr, ...) @ERR_set_error(i32 noundef 11, i32 noundef 786690, ptr noundef null)
  store ptr null, ptr %7, align 8
  store i32 1, ptr %18, align 4
  br label %97

25:                                               ; preds = %6
  %26 = load ptr, ptr %12, align 8, !tbaa !126
  %27 = load ptr, ptr %13, align 8, !tbaa !127
  %28 = call ptr @X509_STORE_CTX_new_ex(ptr noundef %26, ptr noundef %27)
  store ptr %28, ptr %15, align 8, !tbaa !40
  %29 = icmp eq ptr %28, null
  br i1 %29, label %30, label %31

30:                                               ; preds = %25
  store ptr null, ptr %7, align 8
  store i32 1, ptr %18, align 4
  br label %97

31:                                               ; preds = %25
  %32 = load ptr, ptr %15, align 8, !tbaa !40
  %33 = load ptr, ptr %10, align 8, !tbaa !132
  %34 = load ptr, ptr %8, align 8, !tbaa !3
  %35 = load i32, ptr %14, align 4, !tbaa !8
  %36 = icmp ne i32 %35, 0
  br i1 %36, label %37, label %39

37:                                               ; preds = %31
  %38 = load ptr, ptr %9, align 8, !tbaa !60
  br label %40

39:                                               ; preds = %31
  br label %40

40:                                               ; preds = %39, %37
  %41 = phi ptr [ %38, %37 ], [ null, %39 ]
  %42 = call i32 @X509_STORE_CTX_init(ptr noundef %32, ptr noundef %33, ptr noundef %34, ptr noundef %41)
  %43 = icmp ne i32 %42, 0
  br i1 %43, label %45, label %44

44:                                               ; preds = %40
  br label %94

45:                                               ; preds = %40
  %46 = load i32, ptr %14, align 4, !tbaa !8
  %47 = icmp ne i32 %46, 0
  br i1 %47, label %51, label %48

48:                                               ; preds = %45
  %49 = load ptr, ptr %15, align 8, !tbaa !40
  %50 = load ptr, ptr %9, align 8, !tbaa !60
  call void @X509_STORE_CTX_set0_trusted_stack(ptr noundef %49, ptr noundef %50)
  br label %51

51:                                               ; preds = %48, %45
  %52 = load ptr, ptr %15, align 8, !tbaa !40
  %53 = getelementptr inbounds nuw %struct.x509_store_ctx_st, ptr %52, i32 0, i32 20
  %54 = load ptr, ptr %8, align 8, !tbaa !3
  %55 = call i32 @ossl_x509_add_cert_new(ptr noundef %53, ptr noundef %54, i32 noundef 1)
  %56 = icmp ne i32 %55, 0
  br i1 %56, label %60, label %57

57:                                               ; preds = %51
  %58 = load ptr, ptr %15, align 8, !tbaa !40
  %59 = getelementptr inbounds nuw %struct.x509_store_ctx_st, ptr %58, i32 0, i32 24
  store i32 17, ptr %59, align 8, !tbaa !53
  br label %94

60:                                               ; preds = %51
  %61 = load ptr, ptr %15, align 8, !tbaa !40
  %62 = getelementptr inbounds nuw %struct.x509_store_ctx_st, ptr %61, i32 0, i32 19
  store i32 1, ptr %62, align 4, !tbaa !62
  %63 = load ptr, ptr %15, align 8, !tbaa !40
  %64 = call i32 @build_chain(ptr noundef %63)
  %65 = icmp ne i32 %64, 0
  br i1 %65, label %70, label %66

66:                                               ; preds = %60
  %67 = load i32, ptr %14, align 4, !tbaa !8
  %68 = icmp ne i32 %67, 0
  br i1 %68, label %69, label %70

69:                                               ; preds = %66
  br label %94

70:                                               ; preds = %66, %60
  %71 = load ptr, ptr %15, align 8, !tbaa !40
  %72 = getelementptr inbounds nuw %struct.x509_store_ctx_st, ptr %71, i32 0, i32 20
  %73 = load ptr, ptr %72, align 8, !tbaa !61
  %74 = call ptr @ossl_check_const_X509_sk_type(ptr noundef %73)
  %75 = call i32 @OPENSSL_sk_num(ptr noundef %74)
  %76 = icmp sgt i32 %75, 1
  br i1 %76, label %77, label %83

77:                                               ; preds = %70
  %78 = load i32, ptr %11, align 4, !tbaa !8
  %79 = icmp ne i32 %78, 0
  br i1 %79, label %83, label %80

80:                                               ; preds = %77
  %81 = load i32, ptr %16, align 4, !tbaa !8
  %82 = or i32 %81, 8
  store i32 %82, ptr %16, align 4, !tbaa !8
  br label %83

83:                                               ; preds = %80, %77, %70
  %84 = load ptr, ptr %15, align 8, !tbaa !40
  %85 = getelementptr inbounds nuw %struct.x509_store_ctx_st, ptr %84, i32 0, i32 20
  %86 = load ptr, ptr %85, align 8, !tbaa !61
  %87 = load i32, ptr %16, align 4, !tbaa !8
  %88 = call i32 @ossl_x509_add_certs_new(ptr noundef %17, ptr noundef %86, i32 noundef %87)
  %89 = icmp ne i32 %88, 0
  br i1 %89, label %93, label %90

90:                                               ; preds = %83
  %91 = load ptr, ptr %17, align 8, !tbaa !60
  %92 = call ptr @ossl_check_X509_sk_type(ptr noundef %91)
  call void @OPENSSL_sk_free(ptr noundef %92)
  store ptr null, ptr %17, align 8, !tbaa !60
  br label %93

93:                                               ; preds = %90, %83
  br label %94

94:                                               ; preds = %93, %69, %57, %44
  %95 = load ptr, ptr %15, align 8, !tbaa !40
  call void @X509_STORE_CTX_free(ptr noundef %95)
  %96 = load ptr, ptr %17, align 8, !tbaa !60
  store ptr %96, ptr %7, align 8
  store i32 1, ptr %18, align 4
  br label %97

97:                                               ; preds = %94, %30, %24
  call void @llvm.lifetime.end.p0(i64 8, ptr %17) #8
  call void @llvm.lifetime.end.p0(i64 4, ptr %16) #8
  call void @llvm.lifetime.end.p0(i64 8, ptr %15) #8
  call void @llvm.lifetime.end.p0(i64 4, ptr %14) #8
  %98 = load ptr, ptr %7, align 8
  ret ptr %98
}