; Function Attrs: nounwind uwtable
define ptr @X509_build_chain(ptr noundef %0, ptr noundef %1, ptr noundef %2, i32 noundef %3, ptr noundef %4, ptr noundef %5) local_unnamed_addr #0 {
  %7 = alloca ptr, align 8
  %8 = icmp ne ptr %2, null
  call void @llvm.lifetime.start.p0(i64 8, ptr nonnull %7) #10
  store ptr null, ptr %7, align 8, !tbaa !174
  %9 = icmp eq ptr %0, null
  br i1 %9, label %10, label %11

10:                                               ; preds = %6
  tail call void @ERR_new() #10
  tail call void @ERR_set_debug(ptr noundef nonnull @.str, i32 noundef 3627, ptr noundef nonnull @__func__.X509_build_chain) #10
  tail call void (i32, i32, ptr, ...) @ERR_set_error(i32 noundef 11, i32 noundef 786690, ptr noundef null) #10
  br label %X509_STORE_CTX_new_ex.exit.thread

11:                                               ; preds = %6
  %12 = tail call noalias ptr @CRYPTO_zalloc(i64 noundef 280, ptr noundef nonnull @.str, i32 noundef 2452) #10
  %13 = icmp eq ptr %12, null
  br i1 %13, label %X509_STORE_CTX_new_ex.exit.thread, label %14

14:                                               ; preds = %11
  %15 = getelementptr inbounds nuw i8, ptr %12, i64 264
  store ptr %4, ptr %15, align 8, !tbaa !127
  %.not.i = icmp eq ptr %5, null
  br i1 %.not.i, label %X509_STORE_CTX_new_ex.exit, label %16

16:                                               ; preds = %14
  %17 = tail call noalias ptr @CRYPTO_strdup(ptr noundef nonnull %5, ptr noundef nonnull @.str, i32 noundef 2459) #10
  %18 = getelementptr inbounds nuw i8, ptr %12, i64 272
  store ptr %17, ptr %18, align 8, !tbaa !128
  %19 = icmp eq ptr %17, null
  br i1 %19, label %20, label %X509_STORE_CTX_new_ex.exit

20:                                               ; preds = %16
  tail call void @CRYPTO_free(ptr noundef nonnull %12, ptr noundef nonnull @.str, i32 noundef 2461) #10
  br label %X509_STORE_CTX_new_ex.exit.thread

X509_STORE_CTX_new_ex.exit:                       ; preds = %16, %14
  %21 = select i1 %8, ptr %1, ptr null
  %22 = tail call i32 @X509_STORE_CTX_init(ptr noundef nonnull %12, ptr noundef %2, ptr noundef nonnull %0, ptr noundef %21)
  %.not = icmp eq i32 %22, 0
  br i1 %.not, label %46, label %23

23:                                               ; preds = %X509_STORE_CTX_new_ex.exit
  br i1 %8, label %28, label %24

24:                                               ; preds = %23
  %25 = getelementptr inbounds nuw i8, ptr %12, i64 40
  store ptr %1, ptr %25, align 8, !tbaa !132
  %26 = getelementptr inbounds nuw i8, ptr %12, i64 64
  store ptr @get1_best_issuer_other_sk, ptr %26, align 8, !tbaa !133
  %27 = getelementptr inbounds nuw i8, ptr %12, i64 120
  store ptr @lookup_certs_sk, ptr %27, align 8, !tbaa !139
  br label %28

28:                                               ; preds = %24, %23
  %29 = getelementptr inbounds nuw i8, ptr %12, i64 152
  %30 = tail call i32 @ossl_x509_add_cert_new(ptr noundef nonnull %29, ptr noundef nonnull %0, i32 noundef 1) #10
  %.not30 = icmp eq i32 %30, 0
  br i1 %.not30, label %31, label %33

31:                                               ; preds = %28
  %32 = getelementptr inbounds nuw i8, ptr %12, i64 176
  store i32 17, ptr %32, align 8, !tbaa !58
  br label %46

33:                                               ; preds = %28
  %34 = getelementptr inbounds nuw i8, ptr %12, i64 148
  store i32 1, ptr %34, align 4, !tbaa !86
  %35 = tail call fastcc i32 @build_chain(ptr noundef %12)
  %36 = icmp eq i32 %35, 0
  %or.cond = and i1 %8, %36
  br i1 %or.cond, label %46, label %37

37:                                               ; preds = %33
  %38 = load ptr, ptr %29, align 8, !tbaa !56
  %39 = tail call i32 @OPENSSL_sk_num(ptr noundef %38) #10
  %40 = icmp slt i32 %39, 2
  %41 = icmp ne i32 %3, 0
  %or.cond3 = or i1 %41, %40
  %spec.select = select i1 %or.cond3, i32 1, i32 9
  %42 = load ptr, ptr %29, align 8, !tbaa !56
  %43 = call i32 @ossl_x509_add_certs_new(ptr noundef nonnull %7, ptr noundef %42, i32 noundef %spec.select) #10
  %.not31 = icmp eq i32 %43, 0
  br i1 %.not31, label %44, label %46

44:                                               ; preds = %37
  %45 = load ptr, ptr %7, align 8, !tbaa !174
  call void @OPENSSL_sk_free(ptr noundef %45) #10
  store ptr null, ptr %7, align 8, !tbaa !174
  br label %46

46:                                               ; preds = %37, %44, %33, %X509_STORE_CTX_new_ex.exit, %31
  call void @X509_STORE_CTX_free(ptr noundef nonnull %12)
  %47 = load ptr, ptr %7, align 8, !tbaa !174
  br label %X509_STORE_CTX_new_ex.exit.thread

X509_STORE_CTX_new_ex.exit.thread:                ; preds = %11, %20, %46, %10
  %.027 = phi ptr [ null, %10 ], [ %47, %46 ], [ null, %20 ], [ null, %11 ]
  call void @llvm.lifetime.end.p0(i64 8, ptr nonnull %7) #10
  ret ptr %.027
}